target datalayout = "e-m:e-p270:32:32-p271:32:32-p272:64:64-i64:64-i128:128-f80:128-n8:16:32:64-S128"
target triple = "x86_64-unknown-linux-gnu"

%class.doc_manager = type { %class.tbv_manager, ptr, %class.small_object_allocator }
%class.tbv_manager = type { %class.fixed_bit_vector_manager, %class.ptr_vector }
%class.fixed_bit_vector_manager = type <{ %class.small_object_allocator, i32, i32, i32, i32, %class.fixed_bit_vector, [4 x i8] }>
%class.fixed_bit_vector = type { [1 x i32] }
%class.ptr_vector = type { %class.vector }
%class.vector = type { ptr }
%class.small_object_allocator = type { [32 x ptr], [32 x ptr], i64 }
%class.doc = type { ptr, %class.union_bvec }
%class.union_bvec = type { %class.buffer }
%class.buffer = type { ptr, i32, i32, [8 x %"union.std::aligned_storage<8, 8>::type"] }
%"union.std::aligned_storage<8, 8>::type" = type { [8 x i8] }

; Function Attrs: mustprogress nounwind uwtable
define linkonce_odr hidden void @_ZN6bufferIP3tbvLb0ELj8EEC2Ev(ptr noundef nonnull align 8 dereferenceable(80) %this) unnamed_addr #5 comdat align 2 {
entry:
  %this.addr = alloca ptr, align 8
  store ptr %this, ptr %this.addr, align 8
  %this1 = load ptr, ptr %this.addr, align 8
  %m_buffer = getelementptr inbounds %class.buffer, ptr %this1, i32 0, i32 0
  %m_initial_buffer = getelementptr inbounds %class.buffer, ptr %this1, i32 0, i32 3
  %arraydecay = getelementptr inbounds [8 x %"union.std::aligned_storage<8, 8>::type"], ptr %m_initial_buffer, i64 0, i64 0
  store ptr %arraydecay, ptr %m_buffer, align 8
  %m_pos = getelementptr inbounds %class.buffer, ptr %this1, i32 0, i32 1
  store i32 0, ptr %m_pos, align 8
  %m_capacity = getelementptr inbounds %class.buffer, ptr %this1, i32 0, i32 2
  store i32 8, ptr %m_capacity, align 4
  ret void
}

; Function Attrs: mustprogress nounwind uwtable
define linkonce_odr hidden void @_ZN10union_bvecI11tbv_manager3tbvEC2Ev(ptr noundef nonnull align 8 dereferenceable(80) %this) unnamed_addr #5 comdat align 2 {
entry:
  %this.addr = alloca ptr, align 8
  store ptr %this, ptr %this.addr, align 8
  %this1 = load ptr, ptr %this.addr, align 8
  %m_elems = getelementptr inbounds %class.union_bvec, ptr %this1, i32 0, i32 0
  call void @_ZN6bufferIP3tbvLb0ELj8EEC2Ev(ptr noundef nonnull align 8 dereferenceable(80) %m_elems) #3
  ret void
}

; Function Attrs: mustprogress nounwind uwtable
define linkonce_odr hidden void @_ZN3docC2EP3tbv(ptr noundef nonnull align 8 dereferenceable(88) %this, ptr noundef %t) unnamed_addr #5 comdat align 2 {
entry:
  %this.addr = alloca ptr, align 8
  %t.addr = alloca ptr, align 8
  store ptr %this, ptr %this.addr, align 8
  store ptr %t, ptr %t.addr, align 8
  %this1 = load ptr, ptr %this.addr, align 8
  %m_pos = getelementptr inbounds %class.doc, ptr %this1, i32 0, i32 0
  %0 = load ptr, ptr %t.addr, align 8
  store ptr %0, ptr %m_pos, align 8
  %m_neg = getelementptr inbounds %class.doc, ptr %this1, i32 0, i32 1
  call void @_ZN10union_bvecI11tbv_manager3tbvEC2Ev(ptr noundef nonnull align 8 dereferenceable(80) %m_neg) #3
  ret void
}

; Function Attrs: mustprogress uwtable
define hidden noundef ptr @_ZN11doc_manager8allocateEP3tbv(ptr noundef nonnull align 8 dereferenceable(1080) %this, ptr noundef %t) #4 align 2 {
entry:
  %this.addr = alloca ptr, align 8
  %t.addr = alloca ptr, align 8
  %mm = alloca ptr, align 8
  store ptr %this, ptr %this.addr, align 8
  store ptr %t, ptr %t.addr, align 8
  %this1 = load ptr, ptr %this.addr, align 8
  %m_alloc = getelementptr inbounds %class.doc_manager, ptr %this1, i32 0, i32 2
  %call = call noundef ptr @_ZN22small_object_allocator8allocateEm(ptr noundef nonnull align 8 dereferenceable(520) %m_alloc, i64 noundef 88)
  store ptr %call, ptr %mm, align 8
  %0 = load ptr, ptr %mm, align 8
  %1 = load ptr, ptr %t.addr, align 8
  call void @_ZN3docC2EP3tbv(ptr noundef nonnull align 8 dereferenceable(88) %0, ptr noundef %1)
  ret ptr %0
}

; Function Attrs: mustprogress uwtable
define hidden noundef ptr @_ZN11doc_manager8allocateERK3tbv(ptr noundef nonnull align 8 dereferenceable(1080) %this, ptr noundef nonnull align 4 dereferenceable(4) %src) #4 align 2 {
entry:
  %this.addr = alloca ptr, align 8
  %src.addr = alloca ptr, align 8
  store ptr %this, ptr %this.addr, align 8
  store ptr %src, ptr %src.addr, align 8
  %this1 = load ptr, ptr %this.addr, align 8
  %m = getelementptr inbounds %class.doc_manager, ptr %this1, i32 0, i32 0
  %0 = load ptr, ptr %src.addr, align 8
  %call = call noundef ptr @_ZN11tbv_manager8allocateERK3tbv(ptr noundef nonnull align 8 dereferenceable(552) %m, ptr noundef nonnull align 4 dereferenceable(4) %0)
  %call2 = call noundef ptr @_ZN11doc_manager8allocateEP3tbv(ptr noundef nonnull align 8 dereferenceable(1080) %this1, ptr noundef %call)
  ret ptr %call2
}