; Function Attrs: mustprogress uwtable
define hidden noundef ptr @_ZN11doc_manager8allocateERK3tbv(ptr noundef nonnull align 8 dereferenceable(1080) %this, ptr noundef nonnull align 4 dereferenceable(4) %src) local_unnamed_addr #3 align 2 {
entry:
  %call = tail call noundef ptr @_ZN11tbv_manager8allocateERK3tbv(ptr noundef nonnull align 8 dereferenceable(552) %this, ptr noundef nonnull align 4 dereferenceable(4) %src)
  %m_alloc.i = getelementptr inbounds i8, ptr %this, i64 560
  %call.i = tail call noundef ptr @_ZN22small_object_allocator8allocateEm(ptr noundef nonnull align 8 dereferenceable(520) %m_alloc.i, i64 noundef 88)
  store ptr %call, ptr %call.i, align 8
  %m_neg.i.i = getelementptr inbounds i8, ptr %call.i, i64 8
  %m_initial_buffer.i.i.i.i = getelementptr inbounds i8, ptr %call.i, i64 24
  store ptr %m_initial_buffer.i.i.i.i, ptr %m_neg.i.i, align 8
  %m_pos.i.i.i.i = getelementptr inbounds i8, ptr %call.i, i64 16
  store i32 0, ptr %m_pos.i.i.i.i, align 8
  %m_capacity.i.i.i.i = getelementptr inbounds i8, ptr %call.i, i64 20
  store i32 8, ptr %m_capacity.i.i.i.i, align 4
  ret ptr %call.i
}